(lp0
Vc
p1
aV\u0430
p2
aV\u0430\u043b\u043b\u043e
p3
aV\u0431\u0435\u0437
p4
aV\u0431\u0435\u043b\u044b\u0439
p5
aV\u0431\u043b\u0438\u0437\u043a\u043e
p6
aV\u0431\u043e\u043b\u0435\u0435
p7
aV\u0431\u043e\u043b\u044c\u0448\u0435
p8
aV\u0431\u043e\u043b\u044c\u0448\u043e\u0439
p9
aV\u0431\u0443\u0434\u0435\u043c
p10
aV\u0431\u0443\u0434\u0435\u0442
p11
aV\u0431\u0443\u0434\u0435\u0442\u0435
p12
aV\u0431\u0443\u0434\u0435\u0448\u044c
p13
aV\u0431\u0443\u0434\u0442\u043e
p14
aV\u0431\u0443\u0434\u0443
p15
aV\u0431\u0443\u0434\u0443\u0442
p16
aV\u0431\u0443\u0434\u044c
p17
aV\u0431\u044b
p18
aV\u0431\u044b\u0432\u0430\u0435\u0442
p19
aV\u0431\u044b\u0432\u044c
p20
aV\u0431\u044b\u043b
p21
aV\u0431\u044b\u043b\u0430
p22
aV\u0431\u044b\u043b\u0438
p23
aV\u0431\u044b\u043b\u043e
p24
aV\u0431\u044b\u0442\u044c
p25
aV\u0432
p26
aV\u0432\u0430\u0436\u043d\u0430\u044f
p27
aV\u0432\u0430\u0436\u043d\u043e\u0435
p28
aV\u0432\u0430\u0436\u043d\u044b\u0435
p29
aV\u0432\u0430\u0436\u043d\u044b\u0439
p30
aV\u0432\u0430\u043c
p31
aV\u0432\u0430\u043c\u0438
p32
aV\u0432\u0430\u0441
p33
aV\u0432\u0430\u0448
p34
aV\u0432\u0430\u0448\u0430
p35
aV\u0432\u0430\u0448\u0435
p36
aV\u0432\u0430\u0448\u0438
p37
aV\u0432\u0432\u0435\u0440\u0445
p38
aV\u0432\u0434\u0430\u043b\u0438
p39
aV\u0432\u0434\u0440\u0443\u0433
p40
aV\u0432\u0435\u0434\u044c
p41
aV\u0432\u0435\u0437\u0434\u0435
p42
aV\u0432\u0435\u0440\u043d\u0443\u0442\u044c\u0441\u044f
p43
aV\u0432\u0435\u0441\u044c
p44
aV\u0432\u0435\u0447\u0435\u0440
p45
aV\u0432\u0437\u0433\u043b\u044f\u0434
p46
aV\u0432\u0437\u044f\u0442\u044c
p47
aV\u0432\u0438\u0434
p48
aV\u0432\u0438\u0434\u0435\u043b
p49
aV\u0432\u0438\u0434\u0435\u0442\u044c
p50
aV\u0432\u043c\u0435\u0441\u0442\u0435
p51
aV\u0432\u043d\u0435
p52
aV\u0432\u043d\u0438\u0437
p53
aV\u0432\u043d\u0438\u0437\u0443
p54
aV\u0432\u043e
p55
aV\u0432\u043e\u0434\u0430
p56
aV\u0432\u043e\u0439\u043d\u0430
p57
aV\u0432\u043e\u043a\u0440\u0443\u0433
p58
aV\u0432\u043e\u043d
p59
aV\u0432\u043e\u043e\u0431\u0449\u0435
p60
aV\u0432\u043e\u043f\u0440\u043e\u0441
p61
aV\u0432\u043e\u0441\u0435\u043c\u043d\u0430\u0434\u0446\u0430\u0442\u044b\u0439
p62
aV\u0432\u043e\u0441\u0435\u043c\u043d\u0430\u0434\u0446\u0430\u0442\u044c
p63
aV\u0432\u043e\u0441\u0435\u043c\u044c
p64
aV\u0432\u043e\u0441\u044c\u043c\u043e\u0439
p65
aV\u0432\u043e\u0442
p66
aV\u0432\u043f\u0440\u043e\u0447\u0435\u043c
p67
aV\u0432\u0440\u0435\u043c\u0435\u043d\u0438
p68
aV\u0432\u0440\u0435\u043c\u044f
p69
aV\u0432\u0441\u0435
p70
aV\u0432\u0441\u0435 \u0435\u0449\u0435
p71
aV\u0432\u0441\u0435\u0433\u0434\u0430
p72
aV\u0432\u0441\u0435\u0433\u043e
p73
aV\u0432\u0441\u0435\u043c
p74
aV\u0432\u0441\u0435\u043c\u0438
p75
aV\u0432\u0441\u0435\u043c\u0443
p76
aV\u0432\u0441\u0435\u0445
p77
aV\u0432\u0441\u0435\u044e
p78
aV\u0432\u0441\u044e
p79
aV\u0432\u0441\u044e\u0434\u0443
p80
aV\u0432\u0441\u044f
p81
aV\u0432\u0441\u0451
p82
aV\u0432\u0442\u043e\u0440\u043e\u0439
p83
aV\u0432\u044b
p84
aV\u0432\u044b\u0439\u0442\u0438
p85
aV\u0433
p86
aV\u0433\u0434\u0435
p87
aV\u0433\u043b\u0430\u0432\u043d\u044b\u0439
p88
aV\u0433\u043b\u0430\u0437
p89
aV\u0433\u043e\u0432\u043e\u0440\u0438\u043b
p90
aV\u0433\u043e\u0432\u043e\u0440\u0438\u0442
p91
aV\u0433\u043e\u0432\u043e\u0440\u0438\u0442\u044c
p92
aV\u0433\u043e\u0434
p93
aV\u0433\u043e\u0434\u0430
p94
aV\u0433\u043e\u0434\u0443
p95
aV\u0433\u043e\u043b\u043e\u0432\u0430
p96
aV\u0433\u043e\u043b\u043e\u0441
p97
aV\u0433\u043e\u0440\u043e\u0434
p98
aV\u0434\u0430
p99
aV\u0434\u0430\u0432\u0430\u0442\u044c
p100
aV\u0434\u0430\u0432\u043d\u043e
p101
aV\u0434\u0430\u0436\u0435
p102
aV\u0434\u0430\u043b\u0435\u043a\u0438\u0439
p103
aV\u0434\u0430\u043b\u0435\u043a\u043e
p104
aV\u0434\u0430\u043b\u044c\u0448\u0435
p105
aV\u0434\u0430\u0440\u043e\u043c
p106
aV\u0434\u0430\u0442\u044c
p107
aV\u0434\u0432\u0430
p108
aV\u0434\u0432\u0430\u0434\u0446\u0430\u0442\u044b\u0439
p109
aV\u0434\u0432\u0430\u0434\u0446\u0430\u0442\u044c
p110
aV\u0434\u0432\u0435
p111
aV\u0434\u0432\u0435\u043d\u0430\u0434\u0446\u0430\u0442\u044b\u0439
p112
aV\u0434\u0432\u0435\u043d\u0430\u0434\u0446\u0430\u0442\u044c
p113
aV\u0434\u0432\u0435\u0440\u044c
p114
aV\u0434\u0432\u0443\u0445
p115
aV\u0434\u0435\u0432\u044f\u0442\u043d\u0430\u0434\u0446\u0430\u0442\u044b\u0439
p116
aV\u0434\u0435\u0432\u044f\u0442\u043d\u0430\u0434\u0446\u0430\u0442\u044c
p117
aV\u0434\u0435\u0432\u044f\u0442\u044b\u0439
p118
aV\u0434\u0435\u0432\u044f\u0442\u044c
p119
aV\u0434\u0435\u0439\u0441\u0442\u0432\u0438\u0442\u0435\u043b\u044c\u043d\u043e
p120
aV\u0434\u0435\u043b
p121
aV\u0434\u0435\u043b\u0430\u043b
p122
aV\u0434\u0435\u043b\u0430\u0442\u044c
p123
aV\u0434\u0435\u043b\u0430\u044e
p124
aV\u0434\u0435\u043b\u043e
p125
aV\u0434\u0435\u043d\u044c
p126
aV\u0434\u0435\u043d\u044c\u0433\u0438
p127
aV\u0434\u0435\u0441\u044f\u0442\u044b\u0439
p128
aV\u0434\u0435\u0441\u044f\u0442\u044c
p129
aV\u0434\u043b\u044f
p130
aV\u0434\u043e
p131
aV\u0434\u043e\u0432\u043e\u043b\u044c\u043d\u043e
p132
aV\u0434\u043e\u043b\u0433\u043e
p133
aV\u0434\u043e\u043b\u0436\u0435\u043d
p134
aV\u0434\u043e\u043b\u0436\u043d\u043e
p135
aV\u0434\u043e\u043b\u0436\u043d\u044b\u0439
p136
aV\u0434\u043e\u043c
p137
aV\u0434\u043e\u0440\u043e\u0433\u0430
p138
aV\u0434\u0440\u0443\u0433
p139
aV\u0434\u0440\u0443\u0433\u0430\u044f
p140
aV\u0434\u0440\u0443\u0433\u0438\u0435
p141
aV\u0434\u0440\u0443\u0433\u0438\u0445
p142
aV\u0434\u0440\u0443\u0433\u043e
p143
aV\u0434\u0440\u0443\u0433\u043e\u0435
p144
aV\u0434\u0440\u0443\u0433\u043e\u0439
p145
aV\u0434\u0443\u043c\u0430\u0442\u044c
p146
aV\u0434\u0443\u0448\u0430
p147
aV\u0435
p148
aV\u0435\u0433\u043e
p149
aV\u0435\u0435
p150
aV\u0435\u0439
p151
aV\u0435\u043c\u0443
p152
aV\u0435\u0441\u043b\u0438
p153
aV\u0435\u0441\u0442\u044c
p154
aV\u0435\u0449\u0435
p155
aV\u0435\u0449\u0451
p156
aV\u0435\u044e
p157
aV\u0435\u0451
p158
aV\u0436
p159
aV\u0436\u0434\u0430\u0442\u044c
p160
aV\u0436\u0435
p161
aV\u0436\u0435\u043d\u0430
p162
aV\u0436\u0435\u043d\u0449\u0438\u043d\u0430
p163
aV\u0436\u0438\u0437\u043d\u044c
p164
aV\u0436\u0438\u0442\u044c
p165
aV\u0437\u0430
p166
aV\u0437\u0430\u043d\u044f\u0442
p167
aV\u0437\u0430\u043d\u044f\u0442\u0430
p168
aV\u0437\u0430\u043d\u044f\u0442\u043e
p169
aV\u0437\u0430\u043d\u044f\u0442\u044b
p170
aV\u0437\u0430\u0442\u0435\u043c
p171
aV\u0437\u0430\u0442\u043e
p172
aV\u0437\u0430\u0447\u0435\u043c
p173
aV\u0437\u0434\u0435\u0441\u044c
p174
aV\u0437\u0435\u043c\u043b\u044f
p175
aV\u0437\u043d\u0430\u0442\u044c
p176
aV\u0437\u043d\u0430\u0447\u0438\u0442
p177
aV\u0437\u043d\u0430\u0447\u0438\u0442\u044c
p178
aV\u0438
p179
aV\u0438\u0434\u0438
p180
aV\u0438\u0434\u0442\u0438
p181
aV\u0438\u0437
p182
aV\u0438\u043b\u0438
p183
aV\u0438\u043c
p184
aV\u0438\u043c\u0435\u0435\u0442
p185
aV\u0438\u043c\u0435\u043b
p186
aV\u0438\u043c\u0435\u043d\u043d\u043e
p187
aV\u0438\u043c\u0435\u0442\u044c
p188
aV\u0438\u043c\u0438
p189
aV\u0438\u043c\u044f
p190
aV\u0438\u043d\u043e\u0433\u0434\u0430
p191
aV\u0438\u0445
p192
aV\u043a
p193
aV\u043a\u0430\u0436\u0434\u0430\u044f
p194
aV\u043a\u0430\u0436\u0434\u043e\u0435
p195
aV\u043a\u0430\u0436\u0434\u044b\u0435
p196
aV\u043a\u0430\u0436\u0434\u044b\u0439
p197
aV\u043a\u0430\u0436\u0435\u0442\u0441\u044f
p198
aV\u043a\u0430\u0437\u0430\u0442\u044c\u0441\u044f
p199
aV\u043a\u0430\u043a
p200
aV\u043a\u0430\u043a\u0430\u044f
p201
aV\u043a\u0430\u043a\u043e\u0439
p202
aV\u043a\u0435\u043c
p203
aV\u043a\u043d\u0438\u0433\u0430
p204
aV\u043a\u043e\u0433\u0434\u0430
p205
aV\u043a\u043e\u0433\u043e
p206
aV\u043a\u043e\u043c
p207
aV\u043a\u043e\u043c\u043d\u0430\u0442\u0430
p208
aV\u043a\u043e\u043c\u0443
p209
aV\u043a\u043e\u043d\u0435\u0446
p210
aV\u043a\u043e\u043d\u0435\u0447\u043d\u043e
p211
aV\u043a\u043e\u0442\u043e\u0440\u0430\u044f
p212
aV\u043a\u043e\u0442\u043e\u0440\u043e\u0433\u043e
p213
aV\u043a\u043e\u0442\u043e\u0440\u043e\u0439
p214
aV\u043a\u043e\u0442\u043e\u0440\u044b\u0435
p215
aV\u043a\u043e\u0442\u043e\u0440\u044b\u0439
p216
aV\u043a\u043e\u0442\u043e\u0440\u044b\u0445
p217
aV\u043a\u0440\u043e\u043c\u0435
p218
aV\u043a\u0440\u0443\u0433\u043e\u043c
p219
aV\u043a\u0442\u043e
p220
aV\u043a\u0443\u0434\u0430
p221
aV\u043b\u0435\u0436\u0430\u0442\u044c
p222
aV\u043b\u0435\u0442
p223
aV\u043b\u0438
p224
aV\u043b\u0438\u0446\u043e
p225
aV\u043b\u0438\u0448\u044c
p226
aV\u043b\u0443\u0447\u0448\u0435
p227
aV\u043b\u044e\u0431\u0438\u0442\u044c
p228
aV\u043b\u044e\u0434\u0438
p229
aV\u043c
p230
aV\u043c\u0430\u043b\u0435\u043d\u044c\u043a\u0438\u0439
p231
aV\u043c\u0430\u043b\u043e
p232
aV\u043c\u0430\u0442\u044c
p233
aV\u043c\u0430\u0448\u0438\u043d\u0430
p234
aV\u043c\u0435\u0436\u0434\u0443
p235
aV\u043c\u0435\u043b\u044f
p236
aV\u043c\u0435\u043d\u0435\u0435
p237
aV\u043c\u0435\u043d\u044c\u0448\u0435
p238
aV\u043c\u0435\u043d\u044f
p239
aV\u043c\u0435\u0441\u0442\u043e
p240
aV\u043c\u0438\u043b\u043b\u0438\u043e\u043d\u043e\u0432
p241
aV\u043c\u0438\u043c\u043e
p242
aV\u043c\u0438\u043d\u0443\u0442\u0430
p243
aV\u043c\u0438\u0440
p244
aV\u043c\u0438\u0440\u0430
p245
aV\u043c\u043d\u0435
p246
aV\u043c\u043d\u043e\u0433\u043e
p247
aV\u043c\u043d\u043e\u0433\u043e\u0447\u0438\u0441\u043b\u0435\u043d\u043d\u0430\u044f
p248
aV\u043c\u043d\u043e\u0433\u043e\u0447\u0438\u0441\u043b\u0435\u043d\u043d\u043e\u0435
p249
aV\u043c\u043d\u043e\u0433\u043e\u0447\u0438\u0441\u043b\u0435\u043d\u043d\u044b\u0435
p250
aV\u043c\u043d\u043e\u0433\u043e\u0447\u0438\u0441\u043b\u0435\u043d\u043d\u044b\u0439
p251
aV\u043c\u043d\u043e\u0439
p252
aV\u043c\u043d\u043e\u044e
p253
aV\u043c\u043e\u0433
p254
aV\u043c\u043e\u0433\u0443
p255
aV\u043c\u043e\u0433\u0443\u0442
p256
aV\u043c\u043e\u0436
p257
aV\u043c\u043e\u0436\u0435\u0442
p258
aV\u043c\u043e\u0436\u0435\u0442 \u0431\u044b\u0442\u044c
p259
aV\u043c\u043e\u0436\u043d\u043e
p260
aV\u043c\u043e\u0436\u0445\u043e
p261
aV\u043c\u043e\u0438
p262
aV\u043c\u043e\u0439
p263
aV\u043c\u043e\u0440
p264
aV\u043c\u043e\u0441\u043a\u0432\u0430
p265
aV\u043c\u043e\u0447\u044c
p266
aV\u043c\u043e\u044f
p267
aV\u043c\u043e\u0451
p268
aV\u043c\u044b
p269
aV\u043d\u0430
p270
aV\u043d\u0430\u0432\u0435\u0440\u0445\u0443
p271
aV\u043d\u0430\u0434
p272
aV\u043d\u0430\u0434\u043e
p273
aV\u043d\u0430\u0437\u0430\u0434
p274
aV\u043d\u0430\u0438\u0431\u043e\u043b\u0435\u0435
p275
aV\u043d\u0430\u0439\u0442\u0438
p276
aV\u043d\u0430\u043a\u043e\u043d\u0435\u0446
p277
aV\u043d\u0430\u043c
p278
aV\u043d\u0430\u043c\u0438
p279
aV\u043d\u0430\u0440\u043e\u0434
p280
aV\u043d\u0430\u0441
p281
aV\u043d\u0430\u0447\u0430\u043b\u0430
p282
aV\u043d\u0430\u0447\u0430\u0442\u044c
p283
aV\u043d\u0430\u0448
p284
aV\u043d\u0430\u0448\u0430
p285
aV\u043d\u0430\u0448\u0435
p286
aV\u043d\u0430\u0448\u0438
p287
aV\u043d\u0435
p288
aV\u043d\u0435\u0433\u043e
p289
aV\u043d\u0435\u0434\u0430\u0432\u043d\u043e
p290
aV\u043d\u0435\u0434\u0430\u043b\u0435\u043a\u043e
p291
aV\u043d\u0435\u0435
p292
aV\u043d\u0435\u0439
p293
aV\u043d\u0435\u043a\u043e\u0442\u043e\u0440\u044b\u0439
p294
aV\u043d\u0435\u043b\u044c\u0437\u044f
p295
aV\u043d\u0435\u043c
p296
aV\u043d\u0435\u043c\u043d\u043e\u0433\u043e
p297
aV\u043d\u0435\u043c\u0443
p298
aV\u043d\u0435\u043f\u0440\u0435\u0440\u044b\u0432\u043d\u043e
p299
aV\u043d\u0435\u0440\u0435\u0434\u043a\u043e
p300
aV\u043d\u0435\u0441\u043a\u043e\u043b\u044c\u043a\u043e
p301
aV\u043d\u0435\u0442
p302
aV\u043d\u0435\u044e
p303
aV\u043d\u0435\u0451
p304
aV\u043d\u0438
p305
aV\u043d\u0438\u0431\u0443\u0434\u044c
p306
aV\u043d\u0438\u0436\u0435
p307
aV\u043d\u0438\u0437\u043a\u043e
p308
aV\u043d\u0438\u043a\u0430\u043a\u043e\u0439
p309
aV\u043d\u0438\u043a\u043e\u0433\u0434\u0430
p310
aV\u043d\u0438\u043a\u0442\u043e
p311
aV\u043d\u0438\u043a\u0443\u0434\u0430
p312
aV\u043d\u0438\u043c
p313
aV\u043d\u0438\u043c\u0438
p314
aV\u043d\u0438\u0445
p315
aV\u043d\u0438\u0447\u0435\u0433\u043e
p316
aV\u043d\u0438\u0447\u0442\u043e
p317
aV\u043d\u043e
p318
aV\u043d\u043e\u0432\u044b\u0439
p319
aV\u043d\u043e\u0433\u0430
p320
aV\u043d\u043e\u0447\u044c
p321
aV\u043d\u0443
p322
aV\u043d\u0443\u0436\u043d\u043e
p323
aV\u043d\u0443\u0436\u043d\u044b\u0439
p324
aV\u043d\u0445
p325
aV\u043e
p326
aV\u043e\u0431
p327
aV\u043e\u0431\u0430
p328
aV\u043e\u0431\u044b\u0447\u043d\u043e
p329
aV\u043e\u0434\u0438\u043d
p330
aV\u043e\u0434\u0438\u043d\u043d\u0430\u0434\u0446\u0430\u0442\u044b\u0439
p331
aV\u043e\u0434\u0438\u043d\u043d\u0430\u0434\u0446\u0430\u0442\u044c
p332
aV\u043e\u0434\u043d\u0430\u0436\u0434\u044b
p333
aV\u043e\u0434\u043d\u0430\u043a\u043e
p334
aV\u043e\u0434\u043d\u043e\u0433\u043e
p335
aV\u043e\u0434\u043d\u043e\u0439
p336
aV\u043e\u043a\u0430\u0437\u0430\u0442\u044c\u0441\u044f
p337
aV\u043e\u043a\u043d\u043e
p338
aV\u043e\u043a\u043e\u043b\u043e
p339
aV\u043e\u043d
p340
aV\u043e\u043d\u0430
p341
aV\u043e\u043d\u0438
p342
aV\u043e\u043d\u043e
p343
aV\u043e\u043f\u044f\u0442\u044c
p344
aV\u043e\u0441\u043e\u0431\u0435\u043d\u043d\u043e
p345
aV\u043e\u0441\u0442\u0430\u0442\u044c\u0441\u044f
p346
aV\u043e\u0442
p347
aV\u043e\u0442\u0432\u0435\u0442\u0438\u0442\u044c
p348
aV\u043e\u0442\u0435\u0446
p349
aV\u043e\u0442\u043a\u0443\u0434\u0430
p350
aV\u043e\u0442\u043e\u0432\u0441\u044e\u0434\u0443
p351
aV\u043e\u0442\u0441\u044e\u0434\u0430
p352
aV\u043e\u0447\u0435\u043d\u044c
p353
aV\u043f\u0435\u0440\u0432\u044b\u0439
p354
aV\u043f\u0435\u0440\u0435\u0434
p355
aV\u043f\u0438\u0441\u0430\u0442\u044c
p356
aV\u043f\u043b\u0435\u0447\u043e
p357
aV\u043f\u043e
p358
aV\u043f\u043e\u0434
p359
aV\u043f\u043e\u0434\u043e\u0439\u0434\u0438
p360
aV\u043f\u043e\u0434\u0443\u043c\u0430\u0442\u044c
p361
aV\u043f\u043e\u0436\u0430\u043b\u0443\u0439\u0441\u0442\u0430
p362
aV\u043f\u043e\u0437\u0436\u0435
p363
aV\u043f\u043e\u0439\u0442\u0438
p364
aV\u043f\u043e\u043a\u0430
p365
aV\u043f\u043e\u043b
p366
aV\u043f\u043e\u043b\u0443\u0447\u0438\u0442\u044c
p367
aV\u043f\u043e\u043c\u043d\u0438\u0442\u044c
p368
aV\u043f\u043e\u043d\u0438\u043c\u0430\u0442\u044c
p369
aV\u043f\u043e\u043d\u044f\u0442\u044c
p370
aV\u043f\u043e\u0440
p371
aV\u043f\u043e\u0440\u0430
p372
aV\u043f\u043e\u0441\u043b\u0435
p373
aV\u043f\u043e\u0441\u043b\u0435\u0434\u043d\u0438\u0439
p374
aV\u043f\u043e\u0441\u043c\u043e\u0442\u0440\u0435\u0442\u044c
p375
aV\u043f\u043e\u0441\u0440\u0435\u0434\u0438
p376
aV\u043f\u043e\u0442\u043e\u043c
p377
aV\u043f\u043e\u0442\u043e\u043c\u0443
p378
aV\u043f\u043e\u0447\u0435\u043c\u0443
p379
aV\u043f\u043e\u0447\u0442\u0438
p380
aV\u043f\u0440\u0430\u0432\u0434\u0430
p381
aV\u043f\u0440\u0435\u043a\u0440\u0430\u0441\u043d\u043e
p382
aV\u043f\u0440\u0438
p383
aV\u043f\u0440\u043e
p384
aV\u043f\u0440\u043e\u0441\u0442\u043e
p385
aV\u043f\u0440\u043e\u0442\u0438\u0432
p386
aV\u043f\u0440\u043e\u0446\u0435\u043d\u0442\u043e\u0432
p387
aV\u043f\u0443\u0442\u044c
p388
aV\u043f\u044f\u0442\u043d\u0430\u0434\u0446\u0430\u0442\u044b\u0439
p389
aV\u043f\u044f\u0442\u043d\u0430\u0434\u0446\u0430\u0442\u044c
p390
aV\u043f\u044f\u0442\u044b\u0439
p391
aV\u043f\u044f\u0442\u044c
p392
aV\u0440\u0430\u0431\u043e\u0442\u0430
p393
aV\u0440\u0430\u0431\u043e\u0442\u0430\u0442\u044c
p394
aV\u0440\u0430\u0437
p395
aV\u0440\u0430\u0437\u0432\u0435
p396
aV\u0440\u0430\u043d\u043e
p397
aV\u0440\u0430\u043d\u044c\u0448\u0435
p398
aV\u0440\u0435\u0431\u0435\u043d\u043e\u043a
p399
aV\u0440\u0435\u0448\u0438\u0442\u044c
p400
aV\u0440\u043e\u0441\u0441\u0438\u044f
p401
aV\u0440\u0443\u043a\u0430
p402
aV\u0440\u0443\u0441\u0441\u043a\u0438\u0439
p403
aV\u0440\u044f\u0434
p404
aV\u0440\u044f\u0434\u043e\u043c
p405
aV\u0441
p406
aV\u0441 \u043a\u0435\u043c
p407
aV\u0441\u0430\u043c
p408
aV\u0441\u0430\u043c\u0430
p409
aV\u0441\u0430\u043c\u0438
p410
aV\u0441\u0430\u043c\u0438\u043c
p411
aV\u0441\u0430\u043c\u0438\u043c\u0438
p412
aV\u0441\u0430\u043c\u0438\u0445
p413
aV\u0441\u0430\u043c\u043e
p414
aV\u0441\u0430\u043c\u043e\u0433\u043e
p415
aV\u0441\u0430\u043c\u043e\u0439
p416
aV\u0441\u0430\u043c\u043e\u043c
p417
aV\u0441\u0430\u043c\u043e\u043c\u0443
p418
aV\u0441\u0430\u043c\u0443
p419
aV\u0441\u0430\u043c\u044b\u0439
p420
aV\u0441\u0432\u0435\u0442
p421
aV\u0441\u0432\u043e\u0435
p422
aV\u0441\u0432\u043e\u0435\u0433\u043e
p423
aV\u0441\u0432\u043e\u0435\u0439
p424
aV\u0441\u0432\u043e\u0438
p425
aV\u0441\u0432\u043e\u0438\u0445
p426
aV\u0441\u0432\u043e\u0439
p427
aV\u0441\u0432\u043e\u044e
p428
aV\u0441\u0434\u0435\u043b\u0430\u0442\u044c
p429
aV\u0441\u0435\u0430\u043e\u0439
p430
aV\u0441\u0435\u0431\u0435
p431
aV\u0441\u0435\u0431\u044f
p432
aV\u0441\u0435\u0433\u043e\u0434\u043d\u044f
p433
aV\u0441\u0435\u0434\u044c\u043c\u043e\u0439
p434
aV\u0441\u0435\u0439\u0447\u0430\u0441
p435
aV\u0441\u0435\u043c\u043d\u0430\u0434\u0446\u0430\u0442\u044b\u0439
p436
aV\u0441\u0435\u043c\u043d\u0430\u0434\u0446\u0430\u0442\u044c
p437
aV\u0441\u0435\u043c\u044c
p438
aV\u0441\u0438\u0434\u0435\u0442\u044c
p439
aV\u0441\u0438\u043b\u0430
p440
aV\u0441\u0438\u0445
p441
aV\u0441\u043a\u0430\u0437\u0430\u043b
p442
aV\u0441\u043a\u0430\u0437\u0430\u043b\u0430
p443
aV\u0441\u043a\u0430\u0437\u0430\u0442\u044c
p444
aV\u0441\u043a\u043e\u043b\u044c\u043a\u043e
p445
aV\u0441\u043b\u0438\u0448\u043a\u043e\u043c
p446
aV\u0441\u043b\u043e\u0432\u043e
p447
aV\u0441\u043b\u0443\u0447\u0430\u0439
p448
aV\u0441\u043c\u043e\u0442\u0440\u0435\u0442\u044c
p449
aV\u0441\u043d\u0430\u0447\u0430\u043b\u0430
p450
aV\u0441\u043d\u043e\u0432\u0430
p451
aV\u0441\u043e
p452
aV\u0441\u043e\u0431\u043e\u0439
p453
aV\u0441\u043e\u0431\u043e\u044e
p454
aV\u0441\u043e\u0432\u0435\u0442\u0441\u043a\u0438\u0439
p455
aV\u0441\u043e\u0432\u0441\u0435\u043c
p456
aV\u0441\u043f\u0430\u0441\u0438\u0431\u043e
p457
aV\u0441\u043f\u0440\u043e\u0441\u0438\u0442\u044c
p458
aV\u0441\u0440\u0430\u0437\u0443
p459
aV\u0441\u0442\u0430\u043b
p460
aV\u0441\u0442\u0430\u0440\u044b\u0439
p461
aV\u0441\u0442\u0430\u0442\u044c
p462
aV\u0441\u0442\u043e\u043b
p463
aV\u0441\u0442\u043e\u0440\u043e\u043d\u0430
p464
aV\u0441\u0442\u043e\u044f\u0442\u044c
p465
aV\u0441\u0442\u0440\u0430\u043d\u0430
p466
aV\u0441\u0443\u0442\u044c
p467
aV\u0441\u0447\u0438\u0442\u0430\u0442\u044c
p468
aV\u0442
p469
aV\u0442\u0430
p470
aV\u0442\u0430\u043a
p471
aV\u0442\u0430\u043a\u0430\u044f
p472
aV\u0442\u0430\u043a\u0436\u0435
p473
aV\u0442\u0430\u043a\u0438
p474
aV\u0442\u0430\u043a\u0438\u0435
p475
aV\u0442\u0430\u043a\u043e\u0435
p476
aV\u0442\u0430\u043a\u043e\u0439
p477
aV\u0442\u0430\u043c
p478
aV\u0442\u0432\u043e\u0438
p479
aV\u0442\u0432\u043e\u0439
p480
aV\u0442\u0432\u043e\u044f
p481
aV\u0442\u0432\u043e\u0451
p482
aV\u0442\u0435
p483
aV\u0442\u0435\u0431\u0435
p484
aV\u0442\u0435\u0431\u044f
p485
aV\u0442\u0435\u043c
p486
aV\u0442\u0435\u043c\u0438
p487
aV\u0442\u0435\u043f\u0435\u0440\u044c
p488
aV\u0442\u0435\u0445
p489
aV\u0442\u043e
p490
aV\u0442\u043e\u0431\u043e\u0439
p491
aV\u0442\u043e\u0431\u043e\u044e
p492
aV\u0442\u043e\u0432\u0430\u0440\u0438\u0449
p493
aV\u0442\u043e\u0433\u0434\u0430
p494
aV\u0442\u043e\u0433\u043e
p495
aV\u0442\u043e\u0436\u0435
p496
aV\u0442\u043e\u043b\u044c\u043a\u043e
p497
aV\u0442\u043e\u043c
p498
aV\u0442\u043e\u043c\u0443
p499
aV\u0442\u043e\u0442
p500
aV\u0442\u043e\u044e
p501
aV\u0442\u0440\u0435\u0442\u0438\u0439
p502
aV\u0442\u0440\u0438
p503
aV\u0442\u0440\u0438\u043d\u0430\u0434\u0446\u0430\u0442\u044b\u0439
p504
aV\u0442\u0440\u0438\u043d\u0430\u0434\u0446\u0430\u0442\u044c
p505
aV\u0442\u0443
p506
aV\u0442\u0443\u0434\u0430
p507
aV\u0442\u0443\u0442
p508
aV\u0442\u044b
p509
aV\u0442\u044b\u0441\u044f\u0447
p510
aV\u0443
p511
aV\u0443\u0432\u0438\u0434\u0435\u0442\u044c
p512
aV\u0443\u0436
p513
aV\u0443\u0436\u0435
p514
aV\u0443\u043b\u0438\u0446\u0430
p515
aV\u0443\u043c\u0435\u0442\u044c
p516
aV\u0443\u0442\u0440\u043e
p517
aV\u0445\u043e\u0440\u043e\u0448\u0438\u0439
p518
aV\u0445\u043e\u0440\u043e\u0448\u043e
p519
aV\u0445\u043e\u0442\u0435\u043b \u0431\u044b
p520
aV\u0445\u043e\u0442\u0435\u0442\u044c
p521
aV\u0445\u043e\u0442\u044c
p522
aV\u0445\u043e\u0442\u044f
p523
aV\u0445\u043e\u0447\u0435\u0448\u044c
p524
aV\u0447\u0430\u0441
p525
aV\u0447\u0430\u0441\u0442\u043e
p526
aV\u0447\u0430\u0441\u0442\u044c
p527
aV\u0447\u0430\u0449\u0435
p528
aV\u0447\u0435\u0433\u043e
p529
aV\u0447\u0435\u043b\u043e\u0432\u0435\u043a
p530
aV\u0447\u0435\u043c
p531
aV\u0447\u0435\u043c\u0443
p532
aV\u0447\u0435\u0440\u0435\u0437
p533
aV\u0447\u0435\u0442\u0432\u0435\u0440\u0442\u044b\u0439
p534
aV\u0447\u0435\u0442\u044b\u0440\u0435
p535
aV\u0447\u0435\u0442\u044b\u0440\u043d\u0430\u0434\u0446\u0430\u0442\u044b\u0439
p536
aV\u0447\u0435\u0442\u044b\u0440\u043d\u0430\u0434\u0446\u0430\u0442\u044c
p537
aV\u0447\u0442\u043e
p538
aV\u0447\u0442\u043e\u0431
p539
aV\u0447\u0442\u043e\u0431\u044b
p540
aV\u0447\u0443\u0442\u044c
p541
aV\u0448\u0435\u0441\u0442\u043d\u0430\u0434\u0446\u0430\u0442\u044b\u0439
p542
aV\u0448\u0435\u0441\u0442\u043d\u0430\u0434\u0446\u0430\u0442\u044c
p543
aV\u0448\u0435\u0441\u0442\u043e\u0439
p544
aV\u0448\u0435\u0441\u0442\u044c
p545
aV\u044d\u0442\u0430
p546
aV\u044d\u0442\u0438
p547
aV\u044d\u0442\u0438\u043c
p548
aV\u044d\u0442\u0438\u043c\u0438
p549
aV\u044d\u0442\u0438\u0445
p550
aV\u044d\u0442\u043e
p551
aV\u044d\u0442\u043e\u0433\u043e
p552
aV\u044d\u0442\u043e\u0439
p553
aV\u044d\u0442\u043e\u043c
p554
aV\u044d\u0442\u043e\u043c\u0443
p555
aV\u044d\u0442\u043e\u0442
p556
aV\u044d\u0442\u0443
p557
aV\u044f
p558
aV\u044f\u0432\u043b\u044f\u044e\u0441\u044c
p559
a.